target datalayout = "e-m:e-p270:32:32-p271:32:32-p272:64:64-i64:64-i128:128-f80:128-n8:16:32:64-S128"
target triple = "x86_64-pc-linux-gnu"

%struct.JSValue = type { %union.JSValueUnion, i64 }
%union.JSValueUnion = type { double }
%struct.JSSTDFile = type { ptr, i32, i32 }

@js_std_file_class_id = internal global i32 0, align 4
@.str.41 = private unnamed_addr constant [20 x i8] c"invalid file handle\00", align 1
@.str.45 = private unnamed_addr constant [33 x i8] c"read/write array buffer overflow\00", align 1

; Function Attrs: nounwind uwtable
define internal { i64, i64 } @__JS_NewFloat64(ptr noundef %0, double noundef %1) #0 {
  %3 = alloca %struct.JSValue, align 8
  %4 = alloca ptr, align 8
  %5 = alloca double, align 8
  store ptr %0, ptr %4, align 8
  store double %1, ptr %5, align 8
  %6 = getelementptr inbounds %struct.JSValue, ptr %3, i32 0, i32 1
  store i64 7, ptr %6, align 8
  %7 = load double, ptr %5, align 8
  %8 = getelementptr inbounds %struct.JSValue, ptr %3, i32 0, i32 0
  store double %7, ptr %8, align 8
  %9 = load { i64, i64 }, ptr %3, align 8
  ret { i64, i64 } %9
}

; Function Attrs: nounwind uwtable
define internal ptr @js_std_file_get(ptr noundef %0, i64 %1, i64 %2) #0 {
  %4 = alloca ptr, align 8
  %5 = alloca %struct.JSValue, align 8
  %6 = alloca ptr, align 8
  %7 = alloca ptr, align 8
  %8 = alloca %struct.JSValue, align 8
  %9 = getelementptr inbounds { i64, i64 }, ptr %5, i32 0, i32 0
  store i64 %1, ptr %9, align 8
  %10 = getelementptr inbounds { i64, i64 }, ptr %5, i32 0, i32 1
  store i64 %2, ptr %10, align 8
  store ptr %0, ptr %6, align 8
  %11 = load ptr, ptr %6, align 8
  %12 = load i32, ptr @js_std_file_class_id, align 4
  %13 = getelementptr inbounds { i64, i64 }, ptr %5, i32 0, i32 0
  %14 = load i64, ptr %13, align 8
  %15 = getelementptr inbounds { i64, i64 }, ptr %5, i32 0, i32 1
  %16 = load i64, ptr %15, align 8
  %17 = call ptr @JS_GetOpaque2(ptr noundef %11, i64 %14, i64 %16, i32 noundef %12)
  store ptr %17, ptr %7, align 8
  %18 = load ptr, ptr %7, align 8
  %19 = icmp ne ptr %18, null
  br i1 %19, label %21, label %20

20:                                               ; preds = %3
  store ptr null, ptr %4, align 8
  br label %37

21:                                               ; preds = %3
  %22 = load ptr, ptr %7, align 8
  %23 = getelementptr inbounds %struct.JSSTDFile, ptr %22, i32 0, i32 0
  %24 = load ptr, ptr %23, align 8
  %25 = icmp ne ptr %24, null
  br i1 %25, label %33, label %26

26:                                               ; preds = %21
  %27 = load ptr, ptr %6, align 8
  %28 = call { i64, i64 } (ptr, ptr, ...) @JS_ThrowTypeError(ptr noundef %27, ptr noundef @.str.41)
  %29 = getelementptr inbounds { i64, i64 }, ptr %8, i32 0, i32 0
  %30 = extractvalue { i64, i64 } %28, 0
  store i64 %30, ptr %29, align 8
  %31 = getelementptr inbounds { i64, i64 }, ptr %8, i32 0, i32 1
  %32 = extractvalue { i64, i64 } %28, 1
  store i64 %32, ptr %31, align 8
  store ptr null, ptr %4, align 8
  br label %37

33:                                               ; preds = %21
  %34 = load ptr, ptr %7, align 8
  %35 = getelementptr inbounds %struct.JSSTDFile, ptr %34, i32 0, i32 0
  %36 = load ptr, ptr %35, align 8
  store ptr %36, ptr %4, align 8
  br label %37

37:                                               ; preds = %33, %26, %20
  %38 = load ptr, ptr %4, align 8
  ret ptr %38
}

; Function Attrs: nounwind uwtable
define internal { i64, i64 } @js_std_file_read_write(ptr noundef %0, i64 %1, i64 %2, i32 noundef %3, ptr noundef %4, i32 noundef %5) #0 {
  %7 = alloca %struct.JSValue, align 8
  %8 = alloca ptr, align 8
  %9 = alloca i32, align 4
  %10 = alloca %struct.JSValue, align 8
  %11 = alloca ptr, align 8
  %12 = alloca i64, align 8
  %13 = alloca %struct.JSValue, align 8
  %14 = alloca %struct.JSValue, align 8
  %15 = alloca %struct.JSValue, align 8
  %16 = alloca %struct.JSValue, align 8
  %17 = alloca ptr, align 8
  %18 = alloca i32, align 4
  %19 = alloca ptr, align 8
  %20 = alloca i32, align 4
  %21 = alloca ptr, align 8
  %22 = alloca i64, align 8
  %23 = alloca i64, align 8
  %24 = alloca i64, align 8
  %25 = alloca i64, align 8
  %26 = alloca ptr, align 8
  %27 = getelementptr inbounds { i64, i64 }, ptr %16, i32 0, i32 0
  store i64 %1, ptr %27, align 8
  %28 = getelementptr inbounds { i64, i64 }, ptr %16, i32 0, i32 1
  store i64 %2, ptr %28, align 8
  store ptr %0, ptr %17, align 8
  store i32 %3, ptr %18, align 4
  store ptr %4, ptr %19, align 8
  store i32 %5, ptr %20, align 4
  %29 = load ptr, ptr %17, align 8
  %30 = getelementptr inbounds { i64, i64 }, ptr %16, i32 0, i32 0
  %31 = load i64, ptr %30, align 8
  %32 = getelementptr inbounds { i64, i64 }, ptr %16, i32 0, i32 1
  %33 = load i64, ptr %32, align 8
  %34 = call ptr @js_std_file_get(ptr noundef %29, i64 %31, i64 %33)
  store ptr %34, ptr %21, align 8
  %35 = load ptr, ptr %21, align 8
  %36 = icmp ne ptr %35, null
  br i1 %36, label %40, label %37

37:                                               ; preds = %6
  %38 = getelementptr inbounds %struct.JSValue, ptr %15, i32 0, i32 0
  store i32 0, ptr %38, align 8
  %39 = getelementptr inbounds %struct.JSValue, ptr %15, i32 0, i32 1
  store i64 6, ptr %39, align 8
  br label %142

40:                                               ; preds = %6
  %41 = load ptr, ptr %17, align 8
  %42 = load ptr, ptr %19, align 8
  %43 = getelementptr %struct.JSValue, ptr %42, i64 1
  %44 = getelementptr inbounds { i64, i64 }, ptr %43, i32 0, i32 0
  %45 = load i64, ptr %44, align 8
  %46 = getelementptr inbounds { i64, i64 }, ptr %43, i32 0, i32 1
  %47 = load i64, ptr %46, align 8
  %48 = call i32 @JS_ToIndex(ptr noundef %41, ptr noundef %22, i64 %45, i64 %47)
  %49 = icmp ne i32 %48, 0
  br i1 %49, label %50, label %53

50:                                               ; preds = %40
  %51 = getelementptr inbounds %struct.JSValue, ptr %15, i32 0, i32 0
  store i32 0, ptr %51, align 8
  %52 = getelementptr inbounds %struct.JSValue, ptr %15, i32 0, i32 1
  store i64 6, ptr %52, align 8
  br label %142

53:                                               ; preds = %40
  %54 = load ptr, ptr %17, align 8
  %55 = load ptr, ptr %19, align 8
  %56 = getelementptr %struct.JSValue, ptr %55, i64 2
  %57 = getelementptr inbounds { i64, i64 }, ptr %56, i32 0, i32 0
  %58 = load i64, ptr %57, align 8
  %59 = getelementptr inbounds { i64, i64 }, ptr %56, i32 0, i32 1
  %60 = load i64, ptr %59, align 8
  %61 = call i32 @JS_ToIndex(ptr noundef %54, ptr noundef %23, i64 %58, i64 %60)
  %62 = icmp ne i32 %61, 0
  br i1 %62, label %63, label %66

63:                                               ; preds = %53
  %64 = getelementptr inbounds %struct.JSValue, ptr %15, i32 0, i32 0
  store i32 0, ptr %64, align 8
  %65 = getelementptr inbounds %struct.JSValue, ptr %15, i32 0, i32 1
  store i64 6, ptr %65, align 8
  br label %142

66:                                               ; preds = %53
  %67 = load ptr, ptr %17, align 8
  %68 = load ptr, ptr %19, align 8
  %69 = getelementptr %struct.JSValue, ptr %68, i64 0
  %70 = getelementptr inbounds { i64, i64 }, ptr %69, i32 0, i32 0
  %71 = load i64, ptr %70, align 8
  %72 = getelementptr inbounds { i64, i64 }, ptr %69, i32 0, i32 1
  %73 = load i64, ptr %72, align 8
  %74 = call ptr @JS_GetArrayBuffer(ptr noundef %67, ptr noundef %24, i64 %71, i64 %73)
  store ptr %74, ptr %26, align 8
  %75 = load ptr, ptr %26, align 8
  %76 = icmp ne ptr %75, null
  br i1 %76, label %80, label %77

77:                                               ; preds = %66
  %78 = getelementptr inbounds %struct.JSValue, ptr %15, i32 0, i32 0
  store i32 0, ptr %78, align 8
  %79 = getelementptr inbounds %struct.JSValue, ptr %15, i32 0, i32 1
  store i64 6, ptr %79, align 8
  br label %142

80:                                               ; preds = %66
  %81 = load i64, ptr %22, align 8
  %82 = load i64, ptr %23, align 8
  %83 = add i64 %81, %82
  %84 = load i64, ptr %24, align 8
  %85 = icmp ugt i64 %83, %84
  br i1 %85, label %86, label %93

86:                                               ; preds = %80
  %87 = load ptr, ptr %17, align 8
  %88 = call { i64, i64 } (ptr, ptr, ...) @JS_ThrowRangeError(ptr noundef %87, ptr noundef @.str.45)
  %89 = getelementptr inbounds { i64, i64 }, ptr %15, i32 0, i32 0
  %90 = extractvalue { i64, i64 } %88, 0
  store i64 %90, ptr %89, align 8
  %91 = getelementptr inbounds { i64, i64 }, ptr %15, i32 0, i32 1
  %92 = extractvalue { i64, i64 } %88, 1
  store i64 %92, ptr %91, align 8
  br label %142

93:                                               ; preds = %80
  %94 = load i32, ptr %20, align 4
  %95 = icmp ne i32 %94, 0
  br i1 %95, label %96, label %103

96:                                               ; preds = %93
  %97 = load ptr, ptr %26, align 8
  %98 = load i64, ptr %22, align 8
  %99 = getelementptr i8, ptr %97, i64 %98
  %100 = load i64, ptr %23, align 8
  %101 = load ptr, ptr %21, align 8
  %102 = call i64 @fwrite(ptr noundef %99, i64 noundef 1, i64 noundef %100, ptr noundef %101)
  store i64 %102, ptr %25, align 8
  br label %110

103:                                              ; preds = %93
  %104 = load ptr, ptr %26, align 8
  %105 = load i64, ptr %22, align 8
  %106 = getelementptr i8, ptr %104, i64 %105
  %107 = load i64, ptr %23, align 8
  %108 = load ptr, ptr %21, align 8
  %109 = call i64 @fread(ptr noundef %106, i64 noundef 1, i64 noundef %107, ptr noundef %108)
  store i64 %109, ptr %25, align 8
  br label %110

110:                                              ; preds = %103, %96
  %111 = load ptr, ptr %17, align 8
  %112 = load i64, ptr %25, align 8
  store ptr %111, ptr %11, align 8
  store i64 %112, ptr %12, align 8
  %113 = load i64, ptr %12, align 8
  %114 = load i64, ptr %12, align 8
  %115 = trunc i64 %114 to i32
  %116 = sext i32 %115 to i64
  %117 = icmp eq i64 %113, %116
  br i1 %117, label %118, label %128

118:                                              ; preds = %110
  %119 = load ptr, ptr %11, align 8
  %120 = load i64, ptr %12, align 8
  %121 = trunc i64 %120 to i32
  store ptr %119, ptr %8, align 8
  store i32 %121, ptr %9, align 4
  %122 = load i32, ptr %9, align 4
  store i32 %122, ptr %7, align 8
  %123 = getelementptr inbounds %struct.JSValue, ptr %7, i32 0, i32 1
  store i64 0, ptr %123, align 8
  %124 = load { i64, i64 }, ptr %7, align 8
  %125 = extractvalue { i64, i64 } %124, 0
  store i64 %125, ptr %13, align 8
  %126 = getelementptr inbounds { i64, i64 }, ptr %13, i32 0, i32 1
  %127 = extractvalue { i64, i64 } %124, 1
  store i64 %127, ptr %126, align 8
  call void @llvm.memcpy.p0.p0.i64(ptr align 8 %10, ptr align 8 %13, i64 16, i1 false)
  br label %136

128:                                              ; preds = %110
  %129 = load ptr, ptr %11, align 8
  %130 = load i64, ptr %12, align 8
  %131 = sitofp i64 %130 to double
  %132 = call { i64, i64 } @__JS_NewFloat64(ptr noundef %129, double noundef %131)
  %133 = extractvalue { i64, i64 } %132, 0
  store i64 %133, ptr %14, align 8
  %134 = getelementptr inbounds { i64, i64 }, ptr %14, i32 0, i32 1
  %135 = extractvalue { i64, i64 } %132, 1
  store i64 %135, ptr %134, align 8
  call void @llvm.memcpy.p0.p0.i64(ptr align 8 %10, ptr align 8 %14, i64 16, i1 false)
  br label %136

136:                                              ; preds = %128, %118
  %137 = load { i64, i64 }, ptr %10, align 8
  %138 = getelementptr inbounds { i64, i64 }, ptr %15, i32 0, i32 0
  %139 = extractvalue { i64, i64 } %137, 0
  store i64 %139, ptr %138, align 8
  %140 = getelementptr inbounds { i64, i64 }, ptr %15, i32 0, i32 1
  %141 = extractvalue { i64, i64 } %137, 1
  store i64 %141, ptr %140, align 8
  br label %142

142:                                              ; preds = %136, %86, %77, %63, %50, %37
  %143 = load { i64, i64 }, ptr %15, align 8
  ret { i64, i64 } %143
}