; Function Attrs: nounwind uwtable
define internal { i64, i64 } @js_std_file_read_write(ptr noundef %0, i64 %1, i64 %2, i32 %3, ptr nocapture noundef readonly %4, i32 noundef %5) #0 {
  %7 = alloca i64, align 8
  %8 = alloca i64, align 8
  %9 = alloca i64, align 8
  %10 = load i32, ptr @js_std_file_class_id, align 4
  %11 = tail call ptr @JS_GetOpaque2(ptr noundef %0, i64 %1, i64 %2, i32 noundef %10) #29
  %.not.i = icmp eq ptr %11, null
  br i1 %.not.i, label %js_std_file_get.exit.thread, label %12

12:                                               ; preds = %6
  %13 = load ptr, ptr %11, align 8
  %.not9.i = icmp eq ptr %13, null
  br i1 %.not9.i, label %14, label %js_std_file_get.exit

14:                                               ; preds = %12
  %15 = tail call { i64, i64 } (ptr, ptr, ...) @JS_ThrowTypeError(ptr noundef %0, ptr noundef nonnull @.str.41) #29
  br label %js_std_file_get.exit.thread

js_std_file_get.exit:                             ; preds = %12
  %16 = getelementptr i8, ptr %4, i64 16
  %17 = load i64, ptr %16, align 8
  %18 = getelementptr i8, ptr %4, i64 24
  %19 = load i64, ptr %18, align 8
  %20 = call i32 @JS_ToIndex(ptr noundef %0, ptr noundef nonnull %7, i64 %17, i64 %19) #29
  %.not45 = icmp eq i32 %20, 0
  br i1 %.not45, label %21, label %js_std_file_get.exit.thread

21:                                               ; preds = %js_std_file_get.exit
  %22 = getelementptr i8, ptr %4, i64 32
  %23 = load i64, ptr %22, align 8
  %24 = getelementptr i8, ptr %4, i64 40
  %25 = load i64, ptr %24, align 8
  %26 = call i32 @JS_ToIndex(ptr noundef %0, ptr noundef nonnull %8, i64 %23, i64 %25) #29
  %.not46 = icmp eq i32 %26, 0
  br i1 %.not46, label %27, label %js_std_file_get.exit.thread

27:                                               ; preds = %21
  %28 = load i64, ptr %4, align 8
  %29 = getelementptr inbounds i8, ptr %4, i64 8
  %30 = load i64, ptr %29, align 8
  %31 = call ptr @JS_GetArrayBuffer(ptr noundef %0, ptr noundef nonnull %9, i64 %28, i64 %30) #29
  %.not47 = icmp eq ptr %31, null
  br i1 %.not47, label %js_std_file_get.exit.thread, label %32

32:                                               ; preds = %27
  %33 = load i64, ptr %7, align 8
  %34 = load i64, ptr %8, align 8
  %35 = add i64 %34, %33
  %36 = load i64, ptr %9, align 8
  %37 = icmp ugt i64 %35, %36
  br i1 %37, label %38, label %42

38:                                               ; preds = %32
  %39 = call { i64, i64 } (ptr, ptr, ...) @JS_ThrowRangeError(ptr noundef %0, ptr noundef nonnull @.str.45) #29
  %40 = extractvalue { i64, i64 } %39, 0
  %.sroa.7.0.extract.shift = and i64 %40, -4294967296
  %41 = extractvalue { i64, i64 } %39, 1
  br label %js_std_file_get.exit.thread

42:                                               ; preds = %32
  %.not48 = icmp eq i32 %5, 0
  %43 = getelementptr i8, ptr %31, i64 %33
  br i1 %.not48, label %46, label %44

44:                                               ; preds = %42
  %45 = call i64 @fwrite(ptr noundef %43, i64 noundef 1, i64 noundef %34, ptr noundef nonnull %13)
  br label %48

46:                                               ; preds = %42
  %47 = call i64 @fread(ptr noundef %43, i64 noundef 1, i64 noundef %34, ptr noundef nonnull %13)
  br label %48

48:                                               ; preds = %46, %44
  %.0 = phi i64 [ %45, %44 ], [ %47, %46 ]
  %49 = add i64 %.0, 2147483648
  %50 = icmp ult i64 %49, 4294967296
  %.sroa.041.0.insert.ext = and i64 %.0, 4294967295
  %51 = sitofp i64 %.0 to double
  %52 = bitcast double %51 to i64
  %.sroa.037.0 = select i1 %50, i64 %.sroa.041.0.insert.ext, i64 %52
  %.sroa.3.0 = select i1 %50, i64 0, i64 7
  %.sroa.7.0.extract.shift18 = and i64 %.sroa.037.0, -4294967296
  br label %js_std_file_get.exit.thread

js_std_file_get.exit.thread:                      ; preds = %6, %14, %27, %21, %js_std_file_get.exit, %48, %38
  %.sroa.016.0 = phi i64 [ %40, %38 ], [ %.sroa.037.0, %48 ], [ 0, %js_std_file_get.exit ], [ 0, %21 ], [ 0, %27 ], [ 0, %14 ], [ 0, %6 ]
  %.sroa.7.sroa.0.0 = phi i64 [ %.sroa.7.0.extract.shift, %38 ], [ %.sroa.7.0.extract.shift18, %48 ], [ 0, %js_std_file_get.exit ], [ 0, %21 ], [ 0, %27 ], [ 0, %14 ], [ 0, %6 ]
  %.sroa.7.sroa.3.0 = phi i64 [ %41, %38 ], [ %.sroa.3.0, %48 ], [ 6, %js_std_file_get.exit ], [ 6, %21 ], [ 6, %27 ], [ 6, %14 ], [ 6, %6 ]
  %.sroa.016.0.insert.ext = and i64 %.sroa.016.0, 4294967295
  %.sroa.016.0.insert.insert = or disjoint i64 %.sroa.7.sroa.0.0, %.sroa.016.0.insert.ext
  %.fca.0.insert = insertvalue { i64, i64 } poison, i64 %.sroa.016.0.insert.insert, 0
  %.fca.1.insert = insertvalue { i64, i64 } %.fca.0.insert, i64 %.sroa.7.sroa.3.0, 1
  ret { i64, i64 } %.fca.1.insert
}